target datalayout = "e-m:e-p270:32:32-p271:32:32-p272:64:64-i64:64-i128:128-f80:128-n8:16:32:64-S128"
target triple = "x86_64-pc-linux-gnu"

%struct.SDL_VideoDevice = type { ptr, ptr, ptr, ptr, ptr, ptr, ptr, ptr, ptr, ptr, ptr, ptr, ptr, ptr, ptr, ptr, ptr, ptr, ptr, ptr, ptr, ptr, ptr, ptr, ptr, ptr, ptr, ptr, ptr, ptr, ptr, ptr, ptr, ptr, ptr, ptr, ptr, ptr, ptr, ptr, ptr, ptr, ptr, ptr, ptr, ptr, ptr, ptr, ptr, ptr, ptr, ptr, ptr, ptr, ptr, ptr, ptr, ptr, ptr, ptr, ptr, ptr, ptr, ptr, ptr, ptr, ptr, ptr, ptr, ptr, ptr, ptr, ptr, ptr, ptr, ptr, ptr, ptr, ptr, ptr, ptr, ptr, ptr, ptr, ptr, ptr, ptr, ptr, ptr, ptr, ptr, ptr, ptr, ptr, ptr, ptr, ptr, i64, i8, i8, i8, ptr, i32, ptr, %struct.SDL_Rect, ptr, ptr, i32, ptr, ptr, ptr, ptr, i64, ptr, i8, i32, i32, %struct.anon, ptr, ptr, ptr, ptr, ptr, ptr, %struct.SDL_AtomicInt, %struct.SDL_AtomicInt, i8, %struct.anon.0, ptr, ptr, ptr, ptr, ptr }
%struct.SDL_Rect = type { i32, i32, i32, i32 }
%struct.anon = type { i32, i32, i32, i32, i32, i32, i32, i32, i32, i32, i32, i32, i32, i32, i32, i32, i32, i32, i32, i32, i32, i32, i32, i32, i32, i32, i32, i32, i32, [256 x i8], ptr }
%struct.SDL_AtomicInt = type { i32 }
%struct.anon.0 = type { ptr, ptr, i32, [256 x i8], ptr }
%struct.SDL_VideoData = type { ptr, ptr, i32, ptr, i64, i32, ptr, i32, i64, i64, %struct.X11_ClipboardData, %struct.X11_ClipboardData, ptr, i64, %struct.X11_SettingsData, i8, %struct.anon.1, [256 x i32], i8, i8, i8, i64, i8, %struct.SDL_Point, i32, ptr, i32, i8, i32, %struct.anon.2, i8, i64, ptr, ptr, i8, i8, i8 }
%struct.X11_ClipboardData = type { ptr, ptr, ptr, i64, i32 }
%struct.X11_SettingsData = type { ptr }
%struct.anon.1 = type { i64, i64, i64, i64, i64, i64, i64, i64, i64, i64, i64, i64, i64, i64, i64, i64, i64, i64, i64, i64, i64, i64, i64, i64, i64, i64, i64, i64, i64, i64, i64, i64, i64, i64, i64, i64, i64, i64, i64, i64, i64, i64, i64, i64, i64, i64, i64, i64, i64, i64, i64, i64, i64 }
%struct.SDL_Point = type { i32, i32 }
%struct.anon.2 = type { ptr, i32, i32, i32, i16, i32, i32 }
%struct._XkbDesc = type { ptr, i16, i16, i8, i8, ptr, ptr, ptr, ptr, ptr, ptr, ptr }
%struct._XkbClientMapRec = type { i8, i8, ptr, i16, i16, ptr, ptr, ptr }
%struct._XkbSymMapRec = type { [4 x i8], i8, i8, i16 }

@X11_XkbLookupKeySym = external global ptr, align 8
@X11_XKeycodeToKeysym = external global ptr, align 8

; Function Attrs: nounwind uwtable
define hidden i64 @X11_KeyCodeToSym(ptr noundef %0, i8 noundef zeroext %1, i8 noundef zeroext %2, i32 noundef %3) #0 {
  %5 = alloca ptr, align 8
  %6 = alloca i8, align 1
  %7 = alloca i8, align 1
  %8 = alloca i32, align 4
  %9 = alloca ptr, align 8
  %10 = alloca i64, align 8
  %11 = alloca [16 x i32], align 16
  %12 = alloca i32, align 4
  %13 = alloca i8, align 1
  %14 = alloca i32, align 4
  store ptr %0, ptr %5, align 8
  store i8 %1, ptr %6, align 1
  store i8 %2, ptr %7, align 1
  store i32 %3, ptr %8, align 4
  call void @llvm.lifetime.start.p0(i64 8, ptr %9) #6
  %15 = load ptr, ptr %5, align 8
  %16 = getelementptr inbounds nuw %struct.SDL_VideoDevice, ptr %15, i32 0, i32 128
  %17 = load ptr, ptr %16, align 8
  store ptr %17, ptr %9, align 8
  call void @llvm.lifetime.start.p0(i64 8, ptr %10) #6
  call void @llvm.lifetime.start.p0(i64 64, ptr %11) #6
  call void @llvm.memset.p0.i64(ptr align 16 %11, i8 0, i64 64, i1 false)
  %18 = load ptr, ptr %9, align 8
  %19 = getelementptr inbounds nuw %struct.SDL_VideoData, ptr %18, i32 0, i32 29
  %20 = getelementptr inbounds nuw %struct.anon.2, ptr %19, i32 0, i32 0
  %21 = load ptr, ptr %20, align 8
  %22 = icmp ne ptr %21, null
  br i1 %22, label %23, label %111

23:                                               ; preds = %4
  call void @llvm.lifetime.start.p0(i64 4, ptr %12) #6
  %24 = load ptr, ptr %9, align 8
  %25 = getelementptr inbounds nuw %struct.SDL_VideoData, ptr %24, i32 0, i32 29
  %26 = getelementptr inbounds nuw %struct.anon.2, ptr %25, i32 0, i32 0
  %27 = load ptr, ptr %26, align 8
  %28 = getelementptr inbounds nuw %struct._XkbDesc, ptr %27, i32 0, i32 7
  %29 = load ptr, ptr %28, align 8
  %30 = getelementptr inbounds nuw %struct._XkbClientMapRec, ptr %29, i32 0, i32 6
  %31 = load ptr, ptr %30, align 8
  %32 = load i8, ptr %6, align 1
  %33 = zext i8 %32 to i64
  %34 = getelementptr inbounds nuw %struct._XkbSymMapRec, ptr %31, i64 %33
  %35 = getelementptr inbounds nuw %struct._XkbSymMapRec, ptr %34, i32 0, i32 1
  %36 = load i8, ptr %35, align 2
  %37 = zext i8 %36 to i32
  %38 = and i32 %37, 15
  store i32 %38, ptr %12, align 4
  call void @llvm.lifetime.start.p0(i64 1, ptr %13) #6
  %39 = load ptr, ptr %9, align 8
  %40 = getelementptr inbounds nuw %struct.SDL_VideoData, ptr %39, i32 0, i32 29
  %41 = getelementptr inbounds nuw %struct.anon.2, ptr %40, i32 0, i32 0
  %42 = load ptr, ptr %41, align 8
  %43 = getelementptr inbounds nuw %struct._XkbDesc, ptr %42, i32 0, i32 7
  %44 = load ptr, ptr %43, align 8
  %45 = getelementptr inbounds nuw %struct._XkbClientMapRec, ptr %44, i32 0, i32 6
  %46 = load ptr, ptr %45, align 8
  %47 = load i8, ptr %6, align 1
  %48 = zext i8 %47 to i64
  %49 = getelementptr inbounds nuw %struct._XkbSymMapRec, ptr %46, i64 %48
  %50 = getelementptr inbounds nuw %struct._XkbSymMapRec, ptr %49, i32 0, i32 1
  %51 = load i8, ptr %50, align 2
  store i8 %51, ptr %13, align 1
  %52 = load i32, ptr %12, align 4
  %53 = icmp ne i32 %52, 0
  br i1 %53, label %54, label %92

54:                                               ; preds = %23
  %55 = load i8, ptr %7, align 1
  %56 = zext i8 %55 to i32
  %57 = load i32, ptr %12, align 4
  %58 = icmp sge i32 %56, %57
  br i1 %58, label %59, label %92

59:                                               ; preds = %54
  call void @llvm.lifetime.start.p0(i64 4, ptr %14) #6
  %60 = load i8, ptr %13, align 1
  %61 = zext i8 %60 to i32
  %62 = and i32 %61, 192
  store i32 %62, ptr %14, align 4
  %63 = load i32, ptr %14, align 4
  %64 = icmp eq i32 %63, 128
  br i1 %64, label %65, label %77

65:                                               ; preds = %59
  %66 = load i8, ptr %13, align 1
  %67 = zext i8 %66 to i32
  %68 = and i32 %67, 48
  %69 = ashr i32 %68, 4
  %70 = trunc i32 %69 to i8
  store i8 %70, ptr %7, align 1
  %71 = load i8, ptr %7, align 1
  %72 = zext i8 %71 to i32
  %73 = load i32, ptr %12, align 4
  %74 = icmp sge i32 %72, %73
  br i1 %74, label %75, label %76

75:                                               ; preds = %65
  store i8 0, ptr %7, align 1
  br label %76

76:                                               ; preds = %75, %65
  br label %91

77:                                               ; preds = %59
  %78 = load i32, ptr %14, align 4
  %79 = icmp eq i32 %78, 64
  br i1 %79, label %80, label %84

80:                                               ; preds = %77
  %81 = load i32, ptr %12, align 4
  %82 = sub nsw i32 %81, 1
  %83 = trunc i32 %82 to i8
  store i8 %83, ptr %7, align 1
  br label %90

84:                                               ; preds = %77
  %85 = load i32, ptr %12, align 4
  %86 = load i8, ptr %7, align 1
  %87 = zext i8 %86 to i32
  %88 = srem i32 %87, %85
  %89 = trunc i32 %88 to i8
  store i8 %89, ptr %7, align 1
  br label %90

90:                                               ; preds = %84, %80
  br label %91

91:                                               ; preds = %90, %76
  call void @llvm.lifetime.end.p0(i64 4, ptr %14) #6
  br label %92

92:                                               ; preds = %91, %54, %23
  %93 = load ptr, ptr @X11_XkbLookupKeySym, align 8
  %94 = load ptr, ptr %9, align 8
  %95 = getelementptr inbounds nuw %struct.SDL_VideoData, ptr %94, i32 0, i32 0
  %96 = load ptr, ptr %95, align 8
  %97 = load i8, ptr %6, align 1
  %98 = load i8, ptr %7, align 1
  %99 = zext i8 %98 to i32
  %100 = and i32 %99, 3
  %101 = shl i32 %100, 13
  %102 = load i32, ptr %8, align 4
  %103 = and i32 %102, 255
  %104 = or i32 %101, %103
  %105 = getelementptr inbounds [16 x i32], ptr %11, i64 0, i64 0
  %106 = call i32 %93(ptr noundef %96, i8 noundef zeroext %97, i32 noundef %104, ptr noundef %105, ptr noundef %10)
  %107 = sext i32 %106 to i64
  %108 = icmp eq i64 %107, 0
  br i1 %108, label %109, label %110

109:                                              ; preds = %92
  store i64 0, ptr %10, align 8
  br label %110

110:                                              ; preds = %109, %92
  call void @llvm.lifetime.end.p0(i64 1, ptr %13) #6
  call void @llvm.lifetime.end.p0(i64 4, ptr %12) #6
  br label %118

111:                                              ; preds = %4
  %112 = load ptr, ptr @X11_XKeycodeToKeysym, align 8
  %113 = load ptr, ptr %9, align 8
  %114 = getelementptr inbounds nuw %struct.SDL_VideoData, ptr %113, i32 0, i32 0
  %115 = load ptr, ptr %114, align 8
  %116 = load i8, ptr %6, align 1
  %117 = call i64 %112(ptr noundef %115, i8 noundef zeroext %116, i32 noundef 0)
  store i64 %117, ptr %10, align 8
  br label %118

118:                                              ; preds = %111, %110
  %119 = load i64, ptr %10, align 8
  call void @llvm.lifetime.end.p0(i64 64, ptr %11) #6
  call void @llvm.lifetime.end.p0(i64 8, ptr %10) #6
  call void @llvm.lifetime.end.p0(i64 8, ptr %9) #6
  ret i64 %119
}