; Function Attrs: nounwind uwtable
define hidden i64 @X11_KeyCodeToSym(ptr noundef readonly captures(none) %0, i8 noundef zeroext %1, i8 noundef zeroext %2, i32 noundef %3) local_unnamed_addr #0 {
  %5 = alloca i64, align 8
  %6 = alloca [16 x i32], align 16
  %7 = getelementptr inbounds nuw i8, ptr %0, i64 1656
  %8 = load ptr, ptr %7, align 8
  call void @llvm.lifetime.start.p0(i64 8, ptr nonnull %5) #9
  call void @llvm.lifetime.start.p0(i64 64, ptr nonnull %6) #9
  call void @llvm.memset.p0.i64(ptr noundef nonnull align 16 dereferenceable(64) %6, i8 0, i64 64, i1 false)
  %9 = getelementptr inbounds nuw i8, ptr %8, i64 1696
  %10 = load ptr, ptr %9, align 8
  %.not = icmp eq ptr %10, null
  br i1 %.not, label %37, label %11

11:                                               ; preds = %4
  %12 = getelementptr inbounds nuw i8, ptr %10, i64 32
  %13 = load ptr, ptr %12, align 8
  %14 = getelementptr inbounds nuw i8, ptr %13, i64 32
  %15 = load ptr, ptr %14, align 8
  %16 = zext i8 %1 to i64
  %17 = getelementptr inbounds nuw %struct._XkbSymMapRec, ptr %15, i64 %16, i32 1
  %18 = load i8, ptr %17, align 2
  %19 = and i8 %18, 15
  %20 = add nsw i8 %19, -1
  %or.cond.not = icmp ult i8 %20, %2
  br i1 %or.cond.not, label %21, label %27

21:                                               ; preds = %11
  %trunc = and i8 %18, -64
  switch i8 %trunc, label %25 [
    i8 -128, label %22
    i8 64, label %27
  ]

22:                                               ; preds = %21
  %23 = lshr i8 %18, 4
  %24 = and i8 %23, 3
  %.not29 = icmp samesign ugt i8 %19, %24
  %spec.store.select = select i1 %.not29, i8 %24, i8 0
  br label %27

25:                                               ; preds = %21
  %26 = urem i8 %2, %19
  br label %27

27:                                               ; preds = %21, %22, %25, %11
  %.0 = phi i8 [ %2, %11 ], [ %spec.store.select, %22 ], [ %26, %25 ], [ %20, %21 ]
  %28 = load ptr, ptr @X11_XkbLookupKeySym, align 8
  %29 = load ptr, ptr %8, align 8
  %30 = and i8 %.0, 3
  %31 = zext nneg i8 %30 to i32
  %32 = shl nuw nsw i32 %31, 13
  %33 = and i32 %3, 255
  %34 = or disjoint i32 %32, %33
  %35 = call i32 %28(ptr noundef %29, i8 noundef zeroext %1, i32 noundef %34, ptr noundef nonnull %6, ptr noundef nonnull %5) #9
  %36 = icmp eq i32 %35, 0
  %.pre = load i64, ptr %5, align 8
  %spec.select = select i1 %36, i64 0, i64 %.pre
  br label %._crit_edge

37:                                               ; preds = %4
  %38 = load ptr, ptr @X11_XKeycodeToKeysym, align 8
  %39 = load ptr, ptr %8, align 8
  %40 = tail call i64 %38(ptr noundef %39, i8 noundef zeroext %1, i32 noundef 0) #9
  br label %._crit_edge

._crit_edge:                                      ; preds = %27, %37
  %41 = phi i64 [ %40, %37 ], [ %spec.select, %27 ]
  call void @llvm.lifetime.end.p0(i64 64, ptr nonnull %6) #9
  call void @llvm.lifetime.end.p0(i64 8, ptr nonnull %5) #9
  ret i64 %41
}